target datalayout = "e-m:e-p270:32:32-p271:32:32-p272:64:64-i64:64-i128:128-f80:128-n8:16:32:64-S128"
target triple = "x86_64-pc-linux-gnu"

%struct.blake2_mac_data_st = type { %struct.blake2s_ctx_st, %struct.blake2s_param_st, [32 x i8] }
%struct.blake2s_ctx_st = type { [8 x i32], [2 x i32], [2 x i32], [64 x i8], i64, i64 }
%struct.blake2s_param_st = type { i8, i8, i8, i8, [4 x i8], [6 x i8], i8, i8, [8 x i8], [8 x i8] }

@.str.1 = private unnamed_addr constant [5 x i8] c"size\00", align 1
@.str.2 = private unnamed_addr constant [11 x i8] c"block-size\00", align 1

; Function Attrs: nounwind uwtable
define internal i64 @blake2_mac_size(ptr noundef %0) #0 {
  %2 = alloca ptr, align 8
  %3 = alloca ptr, align 8
  store ptr %0, ptr %2, align 8, !tbaa !3
  call void @llvm.lifetime.start.p0(i64 8, ptr %3) #6
  %4 = load ptr, ptr %2, align 8, !tbaa !3
  store ptr %4, ptr %3, align 8, !tbaa !7
  %5 = load ptr, ptr %3, align 8, !tbaa !7
  %6 = getelementptr inbounds nuw %struct.blake2_mac_data_st, ptr %5, i32 0, i32 1
  %7 = getelementptr inbounds nuw %struct.blake2s_param_st, ptr %6, i32 0, i32 0
  %8 = load i8, ptr %7, align 8, !tbaa !27
  %9 = zext i8 %8 to i64
  call void @llvm.lifetime.end.p0(i64 8, ptr %3) #6
  ret i64 %9
}

; Function Attrs: nounwind uwtable
define internal i32 @blake2_get_ctx_params(ptr noundef %0, ptr noundef %1) #0 {
  %3 = alloca i32, align 4
  %4 = alloca ptr, align 8
  %5 = alloca ptr, align 8
  %6 = alloca ptr, align 8
  %7 = alloca i32, align 4
  store ptr %0, ptr %4, align 8, !tbaa !3
  store ptr %1, ptr %5, align 8, !tbaa !15
  call void @llvm.lifetime.start.p0(i64 8, ptr %6) #6
  %8 = load ptr, ptr %5, align 8, !tbaa !15
  %9 = call ptr @OSSL_PARAM_locate(ptr noundef %8, ptr noundef @.str.1)
  store ptr %9, ptr %6, align 8, !tbaa !15
  %10 = icmp ne ptr %9, null
  br i1 %10, label %11, label %18

11:                                               ; preds = %2
  %12 = load ptr, ptr %6, align 8, !tbaa !15
  %13 = load ptr, ptr %4, align 8, !tbaa !3
  %14 = call i64 @blake2_mac_size(ptr noundef %13)
  %15 = call i32 @OSSL_PARAM_set_size_t(ptr noundef %12, i64 noundef %14)
  %16 = icmp ne i32 %15, 0
  br i1 %16, label %18, label %17

17:                                               ; preds = %11
  store i32 0, ptr %3, align 4
  store i32 1, ptr %7, align 4
  br label %28

18:                                               ; preds = %11, %2
  %19 = load ptr, ptr %5, align 8, !tbaa !15
  %20 = call ptr @OSSL_PARAM_locate(ptr noundef %19, ptr noundef @.str.2)
  store ptr %20, ptr %6, align 8, !tbaa !15
  %21 = icmp ne ptr %20, null
  br i1 %21, label %22, label %27

22:                                               ; preds = %18
  %23 = load ptr, ptr %6, align 8, !tbaa !15
  %24 = call i32 @OSSL_PARAM_set_size_t(ptr noundef %23, i64 noundef 64)
  %25 = icmp ne i32 %24, 0
  br i1 %25, label %27, label %26

26:                                               ; preds = %22
  store i32 0, ptr %3, align 4
  store i32 1, ptr %7, align 4
  br label %28

27:                                               ; preds = %22, %18
  store i32 1, ptr %3, align 4
  store i32 1, ptr %7, align 4
  br label %28

28:                                               ; preds = %27, %26, %17
  call void @llvm.lifetime.end.p0(i64 8, ptr %6) #6
  %29 = load i32, ptr %3, align 4
  ret i32 %29
}