; Function Attrs: nounwind uwtable
define internal range(i32 0, 2) i32 @blake2_get_ctx_params(ptr noundef readonly captures(none) %0, ptr noundef %1) #0 {
  %3 = tail call ptr @OSSL_PARAM_locate(ptr noundef %1, ptr noundef nonnull @.str.1) #6
  %.not = icmp eq ptr %3, null
  br i1 %.not, label %8, label %4

4:                                                ; preds = %2
  %5 = getelementptr i8, ptr %0, i64 128
  %.val = load i8, ptr %5, align 8, !tbaa !13
  %6 = zext i8 %.val to i64
  %7 = tail call i32 @OSSL_PARAM_set_size_t(ptr noundef nonnull %3, i64 noundef %6) #6
  %.not7 = icmp eq i32 %7, 0
  br i1 %.not7, label %13, label %8

8:                                                ; preds = %4, %2
  %9 = tail call ptr @OSSL_PARAM_locate(ptr noundef %1, ptr noundef nonnull @.str.2) #6
  %.not8 = icmp eq ptr %9, null
  br i1 %.not8, label %12, label %10

10:                                               ; preds = %8
  %11 = tail call i32 @OSSL_PARAM_set_size_t(ptr noundef nonnull %9, i64 noundef 64) #6
  %.not9 = icmp eq i32 %11, 0
  br i1 %.not9, label %13, label %12

12:                                               ; preds = %10, %8
  br label %13

13:                                               ; preds = %10, %4, %12
  %.0 = phi i32 [ 1, %12 ], [ 0, %4 ], [ 0, %10 ]
  ret i32 %.0
}